target datalayout = "e-m:e-p270:32:32-p271:32:32-p272:64:64-i64:64-i128:128-f80:128-n8:16:32:64-S128"
target triple = "x86_64-pc-linux-gnu"

%union.pthread_mutex_t = type { %struct.__pthread_mutex_s }
%struct.__pthread_mutex_s = type { i32, i32, i32, i32, i32, i16, i16, %struct.__pthread_internal_list }
%struct.__pthread_internal_list = type { ptr, ptr }
%struct.pmix_tma = type { ptr, ptr, ptr, ptr, ptr, ptr, ptr, ptr }
%struct.pmix_proc = type { [256 x i8], i32 }
%struct.timeval = type { i64, i64 }
%struct.pmix_lock_t = type { i32, %struct.pmix_mutex_t, %union.pthread_cond_t, i8 }
%struct.pmix_mutex_t = type { %struct.pmix_object_t, %union.pthread_mutex_t }
%struct.pmix_object_t = type { %union.pthread_mutex_t, ptr, i32, %struct.pmix_tma }
%union.pthread_cond_t = type { %struct.__pthread_cond_s }
%struct.__pthread_cond_s = type { %union.__atomic_wide_counter, %union.__atomic_wide_counter, [2 x i32], [2 x i32], i32, i32, [2 x i32] }
%union.__atomic_wide_counter = type { i64 }
%struct.pmix_pointer_array_t = type { %struct.pmix_object_t, i32, i32, i32, i32, i32, ptr, ptr }
%struct.pmix_list_t = type { %struct.pmix_object_t, %struct.pmix_list_item_t, i64 }
%struct.pmix_list_item_t = type { %struct.pmix_object_t, ptr, ptr, i32 }
%struct.event = type { %struct.event_callback, %union.anon.0, i32, ptr, %union.anon.2, i16, i16, %struct.timeval }
%struct.event_callback = type { %struct.anon, i16, i8, i8, %union.anon, ptr }
%struct.anon = type { ptr, ptr }
%union.anon = type { ptr }
%union.anon.0 = type { %struct.anon.1 }
%struct.anon.1 = type { ptr, ptr }
%union.anon.2 = type { %struct.anon.3 }
%struct.anon.3 = type { %struct.anon.4, %struct.timeval }
%struct.anon.4 = type { ptr, ptr }
%struct.pmix_output_desc_t = type { i8, i8, i32, i8, i32, ptr, ptr, i32, ptr, i32, i8, i8, i8, i8, ptr, i32, i32 }
%struct.pmix_client_globals_t = type { ptr, i8, %struct.pmix_list_t, %struct.pmix_pointer_array_t, %struct.pmix_list_t, i32, i32, i32, i32, i32, i32, i32, i32, i32, i32, i32, i32, i32, i32, i32, i32, %struct.pmix_iof_sink_t, %struct.pmix_iof_sink_t, i32, i32 }
%struct.pmix_iof_sink_t = type { %struct.pmix_list_item_t, %struct.pmix_proc, i16, %struct.pmix_iof_write_event_t, i8, i8, i8 }
%struct.pmix_iof_write_event_t = type { %struct.pmix_list_item_t, i8, i8, i32, ptr, %struct.timeval, i32, %struct.pmix_list_t }
%struct.pmix_client_timeout_t = type { %struct.pmix_lock_t, %struct.event, i8 }

@pmix_output_info = external global [0 x %struct.pmix_output_desc_t], align 8
@.str.63 = private unnamed_addr constant [34 x i8] c"pmix:client finwait timeout fired\00", align 1

; Function Attrs: inlinehint nounwind uwtable
define internal void @pmix_mutex_unlock(ptr noundef %0) #2 {
  %2 = alloca ptr, align 8
  store ptr %0, ptr %2, align 8, !tbaa !158
  %3 = load ptr, ptr %2, align 8, !tbaa !158
  %4 = getelementptr inbounds nuw %struct.pmix_mutex_t, ptr %3, i32 0, i32 1
  %5 = call i32 @pthread_mutex_unlock(ptr noundef %4) #12
  ret void
}

; Function Attrs: inlinehint nounwind uwtable
define internal void @pmix_atomic_wmb() #2 {
  fence release
  ret void
}

; Function Attrs: inlinehint nounwind uwtable
define internal void @pmix_mutex_lock(ptr noundef %0) #2 {
  %2 = alloca ptr, align 8
  store ptr %0, ptr %2, align 8, !tbaa !158
  %3 = load ptr, ptr %2, align 8, !tbaa !158
  %4 = getelementptr inbounds nuw %struct.pmix_mutex_t, ptr %3, i32 0, i32 1
  %5 = call i32 @pthread_mutex_lock(ptr noundef %4) #12
  ret void
}

; Function Attrs: nounwind uwtable
define internal void @fin_timeout(i32 noundef %0, i16 noundef signext %1, ptr noundef %2) #0 {
  %4 = alloca i32, align 4
  %5 = alloca i16, align 2
  %6 = alloca ptr, align 8
  %7 = alloca ptr, align 8
  store i32 %0, ptr %4, align 4, !tbaa !12
  store i16 %1, ptr %5, align 2, !tbaa !189
  store ptr %2, ptr %6, align 8, !tbaa !76
  call void @llvm.lifetime.start.p0(i64 8, ptr %7) #12
  %8 = load ptr, ptr %6, align 8, !tbaa !76
  store ptr %8, ptr %7, align 8, !tbaa !76
  %9 = load i32, ptr getelementptr inbounds nuw (%struct.pmix_client_globals_t, ptr @pmix_client_globals, i32 0, i32 19), align 8, !tbaa !75
  %10 = icmp sge i32 %9, 0
  br i1 %10, label %11, label %23

11:                                               ; preds = %3
  %12 = load i32, ptr getelementptr inbounds nuw (%struct.pmix_client_globals_t, ptr @pmix_client_globals, i32 0, i32 19), align 8, !tbaa !75
  %13 = icmp slt i32 %12, 64
  br i1 %13, label %14, label %23

14:                                               ; preds = %11
  %15 = load i32, ptr getelementptr inbounds nuw (%struct.pmix_client_globals_t, ptr @pmix_client_globals, i32 0, i32 19), align 8, !tbaa !75
  %16 = sext i32 %15 to i64
  %17 = getelementptr inbounds [0 x %struct.pmix_output_desc_t], ptr @pmix_output_info, i64 0, i64 %16
  %18 = getelementptr inbounds nuw %struct.pmix_output_desc_t, ptr %17, i32 0, i32 2
  %19 = load i32, ptr %18, align 4, !tbaa !83
  %20 = icmp sge i32 %19, 2
  br i1 %20, label %21, label %23

21:                                               ; preds = %14
  %22 = load i32, ptr getelementptr inbounds nuw (%struct.pmix_client_globals_t, ptr @pmix_client_globals, i32 0, i32 19), align 8, !tbaa !75
  call void (i32, ptr, ...) @pmix_output(i32 noundef %22, ptr noundef @.str.63)
  br label %23

23:                                               ; preds = %21, %14, %11, %3
  %24 = load ptr, ptr %7, align 8, !tbaa !76
  %25 = getelementptr inbounds nuw %struct.pmix_client_timeout_t, ptr %24, i32 0, i32 2
  %26 = load i8, ptr %25, align 8, !tbaa !215, !range !24, !noundef !25
  %27 = trunc i8 %26 to i1
  br i1 %27, label %28, label %47

28:                                               ; preds = %23
  %29 = load ptr, ptr %7, align 8, !tbaa !76
  %30 = getelementptr inbounds nuw %struct.pmix_client_timeout_t, ptr %29, i32 0, i32 2
  store i8 0, ptr %30, align 8, !tbaa !215
  br label %31

31:                                               ; preds = %28
  %32 = load ptr, ptr %7, align 8, !tbaa !76
  %33 = getelementptr inbounds nuw %struct.pmix_client_timeout_t, ptr %32, i32 0, i32 0
  %34 = getelementptr inbounds nuw %struct.pmix_lock_t, ptr %33, i32 0, i32 1
  call void @pmix_mutex_lock(ptr noundef %34)
  %35 = load ptr, ptr %7, align 8, !tbaa !76
  %36 = getelementptr inbounds nuw %struct.pmix_client_timeout_t, ptr %35, i32 0, i32 0
  %37 = getelementptr inbounds nuw %struct.pmix_lock_t, ptr %36, i32 0, i32 3
  store volatile i8 0, ptr %37, align 8, !tbaa !213
  call void @pmix_atomic_wmb()
  %38 = load ptr, ptr %7, align 8, !tbaa !76
  %39 = getelementptr inbounds nuw %struct.pmix_client_timeout_t, ptr %38, i32 0, i32 0
  %40 = getelementptr inbounds nuw %struct.pmix_lock_t, ptr %39, i32 0, i32 2
  %41 = call i32 @pthread_cond_broadcast(ptr noundef %40) #12
  %42 = load ptr, ptr %7, align 8, !tbaa !76
  %43 = getelementptr inbounds nuw %struct.pmix_client_timeout_t, ptr %42, i32 0, i32 0
  %44 = getelementptr inbounds nuw %struct.pmix_lock_t, ptr %43, i32 0, i32 1
  call void @pmix_mutex_unlock(ptr noundef %44)
  br label %45

45:                                               ; preds = %31
  br label %46

46:                                               ; preds = %45
  br label %47

47:                                               ; preds = %46, %23
  call void @llvm.lifetime.end.p0(i64 8, ptr %7) #12
  ret void
}